# SymbolsHelper-Confirmed: 15.12.0 amd64
libKF5GrantleeTheme.so.5 libkf5grantleethemee5 #MINVER#
 _ZN13GrantleeTheme12ThemeManager11qt_metacallEN11QMetaObject4CallEiPPv@Base 15.12.0
 _ZN13GrantleeTheme12ThemeManager11qt_metacastEPKc@Base 15.12.0
 _ZN13GrantleeTheme12ThemeManager12setThemeMenuEP11KActionMenu@Base 15.12.0
 _ZN13GrantleeTheme12ThemeManager12updateThemesEv@Base 15.12.0
 _ZN13GrantleeTheme12ThemeManager13themesChangedEv@Base 15.12.0
 _ZN13GrantleeTheme12ThemeManager14actionForThemeEv@Base 15.12.0
 _ZN13GrantleeTheme12ThemeManager14pathFromThemesERK7QStringS3_S3_@Base 15.12.0
 _ZN13GrantleeTheme12ThemeManager14setActionGroupEP12QActionGroup@Base 15.12.0
 _ZN13GrantleeTheme12ThemeManager16staticMetaObjectE@Base 15.12.0
 _ZN13GrantleeTheme12ThemeManager19configuredThemeNameERK7QString@Base 15.12.0
 _ZN13GrantleeTheme12ThemeManager21grantleeThemeSelectedEv@Base 15.12.0
 _ZN13GrantleeTheme12ThemeManager29setDownloadNewStuffConfigFileERK7QString@Base 15.12.0
 _ZN13GrantleeTheme12ThemeManager5themeERK7QString@Base 15.12.0
 _ZN13GrantleeTheme12ThemeManager9loadThemeERK7QStringS3_S3_@Base 15.12.0
 _ZN13GrantleeTheme12ThemeManagerC1ERK7QStringS3_P17KActionCollectionS3_P7QObject@Base 15.12.0
 _ZN13GrantleeTheme12ThemeManagerC2ERK7QStringS3_P17KActionCollectionS3_P7QObject@Base 15.12.0
 _ZN13GrantleeTheme12ThemeManagerD0Ev@Base 15.12.0
 _ZN13GrantleeTheme12ThemeManagerD1Ev@Base 15.12.0
 _ZN13GrantleeTheme12ThemeManagerD2Ev@Base 15.12.0
 _ZN13GrantleeTheme5Theme13addPluginPathERK7QString@Base 15.12.0
 _ZN13GrantleeTheme5Theme6renderERK7QStringRK5QHashIS1_8QVariantE@Base 15.12.0
 _ZN13GrantleeTheme5ThemeC1ERK7QStringS3_S3_@Base 15.12.0
 _ZN13GrantleeTheme5ThemeC1ERKS0_@Base 15.12.0
 _ZN13GrantleeTheme5ThemeC1Ev@Base 15.12.0
 _ZN13GrantleeTheme5ThemeC2ERK7QStringS3_S3_@Base 15.12.0
 _ZN13GrantleeTheme5ThemeC2ERKS0_@Base 15.12.0
 _ZN13GrantleeTheme5ThemeC2Ev@Base 15.12.0
 _ZN13GrantleeTheme5ThemeD1Ev@Base 15.12.0
 _ZN13GrantleeTheme5ThemeD2Ev@Base 15.12.0
 _ZN13GrantleeTheme5ThemeaSERKS0_@Base 15.12.0
 _ZNK13GrantleeTheme12ThemeManager10metaObjectEv@Base 15.12.0
 _ZNK13GrantleeTheme12ThemeManager19configuredThemeNameEv@Base 15.12.0
 _ZNK13GrantleeTheme12ThemeManager21displayExtraVariablesERK7QString@Base 15.12.0
 _ZNK13GrantleeTheme12ThemeManager6themesEv@Base 15.12.0
 _ZNK13GrantleeTheme5Theme11authorEmailEv@Base 15.12.0
 _ZNK13GrantleeTheme5Theme11descriptionEv@Base 15.12.0
 _ZNK13GrantleeTheme5Theme12absolutePathEv@Base 15.12.0
 _ZNK13GrantleeTheme5Theme13themeFilenameEv@Base 15.12.0
 _ZNK13GrantleeTheme5Theme21displayExtraVariablesEv@Base 15.12.0
 _ZNK13GrantleeTheme5Theme4nameEv@Base 15.12.0
 _ZNK13GrantleeTheme5Theme6authorEv@Base 15.12.0
 _ZNK13GrantleeTheme5Theme7dirNameEv@Base 15.12.0
 _ZNK13GrantleeTheme5Theme7isValidEv@Base 15.12.0
 _ZNK13GrantleeTheme5ThemeeqERKS0_@Base 15.12.0
 _ZTIN13GrantleeTheme12ThemeManagerE@Base 15.12.0
 _ZTSN13GrantleeTheme12ThemeManagerE@Base 15.12.0
 _ZTVN13GrantleeTheme12ThemeManagerE@Base 15.12.0
